target datalayout = "e-m:e-p270:32:32-p271:32:32-p272:64:64-i64:64-i128:128-f80:128-n8:16:32:64-S128"
target triple = "x86_64-unknown-linux-gnu"

%"class.absl::lts_20230802::Cord" = type { %"class.absl::lts_20230802::Cord::InlineRep" }
%"class.absl::lts_20230802::Cord::InlineRep" = type { %"class.absl::lts_20230802::cord_internal::InlineData" }
%"class.absl::lts_20230802::cord_internal::InlineData" = type { %"struct.absl::lts_20230802::cord_internal::InlineData::Rep" }
%"struct.absl::lts_20230802::cord_internal::InlineData::Rep" = type { %union.anon.20 }
%union.anon.20 = type { %"struct.absl::lts_20230802::cord_internal::InlineData::Rep::AsTree" }
%"struct.absl::lts_20230802::cord_internal::InlineData::Rep::AsTree" = type { i64, ptr }

; Function Attrs: mustprogress nounwind uwtable
define linkonce_odr hidden void @_ZN4absl12lts_2023080213cord_internal10InlineData11poison_thisEv(ptr noundef nonnull align 8 dereferenceable(16) %this) #5 comdat align 2 {
entry:
  %this.addr = alloca ptr, align 8
  store ptr %this, ptr %this.addr, align 8
  ret void
}

; Function Attrs: mustprogress nounwind uwtable
define linkonce_odr hidden void @_ZN4absl12lts_2023080213cord_internal10InlineData3RepC2Ev(ptr noundef nonnull align 8 dereferenceable(16) %this) unnamed_addr #5 comdat align 2 {
entry:
  %this.addr = alloca ptr, align 8
  store ptr %this, ptr %this.addr, align 8
  %this1 = load ptr, ptr %this.addr, align 8
  %0 = getelementptr inbounds %"struct.absl::lts_20230802::cord_internal::InlineData::Rep", ptr %this1, i32 0, i32 0
  %arrayinit.begin = getelementptr inbounds [16 x i8], ptr %0, i64 0, i64 0
  store i8 0, ptr %arrayinit.begin, align 1
  %arrayinit.start = getelementptr inbounds i8, ptr %arrayinit.begin, i64 1
  %arrayinit.end = getelementptr inbounds i8, ptr %arrayinit.begin, i64 16
  br label %arrayinit.body

arrayinit.body:                                   ; preds = %arrayinit.body, %entry
  %arrayinit.cur = phi ptr [ %arrayinit.start, %entry ], [ %arrayinit.next, %arrayinit.body ]
  store i8 0, ptr %arrayinit.cur, align 1
  %arrayinit.next = getelementptr inbounds i8, ptr %arrayinit.cur, i64 1
  %arrayinit.done = icmp eq ptr %arrayinit.next, %arrayinit.end
  br i1 %arrayinit.done, label %arrayinit.end2, label %arrayinit.body

arrayinit.end2:                                   ; preds = %arrayinit.body
  ret void
}

; Function Attrs: mustprogress nounwind uwtable
define linkonce_odr hidden void @_ZN4absl12lts_2023080213cord_internal10InlineDataC2Ev(ptr noundef nonnull align 8 dereferenceable(16) %this) unnamed_addr #5 comdat align 2 personality ptr @__gxx_personality_v0 {
entry:
  %this.addr = alloca ptr, align 8
  store ptr %this, ptr %this.addr, align 8
  %this1 = load ptr, ptr %this.addr, align 8
  %rep_ = getelementptr inbounds %"class.absl::lts_20230802::cord_internal::InlineData", ptr %this1, i32 0, i32 0
  invoke void @_ZN4absl12lts_2023080213cord_internal10InlineData3RepC2Ev(ptr noundef nonnull align 8 dereferenceable(16) %rep_)
          to label %invoke.cont unwind label %terminate.lpad

invoke.cont:                                      ; preds = %entry
  invoke void @_ZN4absl12lts_2023080213cord_internal10InlineData11poison_thisEv(ptr noundef nonnull align 8 dereferenceable(16) %this1)
          to label %invoke.cont2 unwind label %terminate.lpad

invoke.cont2:                                     ; preds = %invoke.cont
  ret void

terminate.lpad:                                   ; preds = %invoke.cont, %entry
  %0 = landingpad { ptr, i32 }
          catch ptr null
  %1 = extractvalue { ptr, i32 } %0, 0
  call void @__clang_call_terminate(ptr %1) #19
  unreachable
}

; Function Attrs: noreturn nounwind uwtable
define linkonce_odr hidden void @__clang_call_terminate(ptr noundef %0) #11 comdat {
  %2 = call ptr @__cxa_begin_catch(ptr %0) #3
  call void @_ZSt9terminatev() #19
  unreachable
}

; Function Attrs: mustprogress nounwind uwtable
define linkonce_odr hidden void @_ZN4absl12lts_202308024Cord9InlineRepC2Ev(ptr noundef nonnull align 8 dereferenceable(16) %this) unnamed_addr #5 comdat align 2 {
entry:
  %this.addr = alloca ptr, align 8
  store ptr %this, ptr %this.addr, align 8
  %this1 = load ptr, ptr %this.addr, align 8
  %data_ = getelementptr inbounds %"class.absl::lts_20230802::Cord::InlineRep", ptr %this1, i32 0, i32 0
  call void @_ZN4absl12lts_2023080213cord_internal10InlineDataC2Ev(ptr noundef nonnull align 8 dereferenceable(16) %data_) #3
  ret void
}

; Function Attrs: mustprogress uwtable
define noundef zeroext i1 @_ZNK6google8protobuf11MessageLite12AppendToCordEPN4absl12lts_202308024CordE(ptr noundef nonnull align 8 dereferenceable(16) %this, ptr noundef %output) #4 align 2 {
entry:
  %this.addr = alloca ptr, align 8
  %output.addr = alloca ptr, align 8
  store ptr %this, ptr %this.addr, align 8
  store ptr %output, ptr %output.addr, align 8
  %this1 = load ptr, ptr %this.addr, align 8
  %0 = load ptr, ptr %output.addr, align 8
  %call = call noundef zeroext i1 @_ZNK6google8protobuf11MessageLite19AppendPartialToCordEPN4absl12lts_202308024CordE(ptr noundef nonnull align 8 dereferenceable(16) %this1, ptr noundef %0)
  ret i1 %call
}

; Function Attrs: mustprogress nounwind uwtable
define linkonce_odr hidden void @_ZN4absl12lts_202308024CordC2Ev(ptr noundef nonnull align 8 dereferenceable(16) %this) unnamed_addr #5 comdat align 2 personality ptr @__gxx_personality_v0 {
entry:
  %this.addr = alloca ptr, align 8
  store ptr %this, ptr %this.addr, align 8
  %this1 = load ptr, ptr %this.addr, align 8
  %contents_ = getelementptr inbounds %"class.absl::lts_20230802::Cord", ptr %this1, i32 0, i32 0
  invoke void @_ZN4absl12lts_202308024Cord9InlineRepC2Ev(ptr noundef nonnull align 8 dereferenceable(16) %contents_)
          to label %invoke.cont unwind label %terminate.lpad

invoke.cont:                                      ; preds = %entry
  ret void

terminate.lpad:                                   ; preds = %entry
  %0 = landingpad { ptr, i32 }
          catch ptr null
  %1 = extractvalue { ptr, i32 } %0, 0
  call void @__clang_call_terminate(ptr %1) #19
  unreachable
}

; Function Attrs: mustprogress uwtable
define void @_ZNK6google8protobuf11MessageLite15SerializeAsCordEv(ptr noalias sret(%"class.absl::lts_20230802::Cord") align 8 %agg.result, ptr noundef nonnull align 8 dereferenceable(16) %this) #4 align 2 personality ptr @__gxx_personality_v0 {
entry:
  %result.ptr = alloca ptr, align 8
  %this.addr = alloca ptr, align 8
  %nrvo = alloca i1, align 1
  %exn.slot = alloca ptr, align 8
  %ehselector.slot = alloca i32, align 4
  store ptr %agg.result, ptr %result.ptr, align 8
  store ptr %this, ptr %this.addr, align 8
  %this1 = load ptr, ptr %this.addr, align 8
  store i1 false, ptr %nrvo, align 1
  call void @_ZN4absl12lts_202308024CordC2Ev(ptr noundef nonnull align 8 dereferenceable(16) %agg.result) #3
  %call = invoke noundef zeroext i1 @_ZNK6google8protobuf11MessageLite12AppendToCordEPN4absl12lts_202308024CordE(ptr noundef nonnull align 8 dereferenceable(16) %this1, ptr noundef %agg.result)
          to label %invoke.cont unwind label %lpad

invoke.cont:                                      ; preds = %entry
  br i1 %call, label %if.end, label %if.then

if.then:                                          ; preds = %invoke.cont
  invoke void @_ZN4absl12lts_202308024Cord5ClearEv(ptr noundef nonnull align 8 dereferenceable(16) %agg.result)
          to label %invoke.cont2 unwind label %lpad

invoke.cont2:                                     ; preds = %if.then
  br label %if.end

lpad:                                             ; preds = %if.then, %entry
  %0 = landingpad { ptr, i32 }
          cleanup
  %1 = extractvalue { ptr, i32 } %0, 0
  store ptr %1, ptr %exn.slot, align 8
  %2 = extractvalue { ptr, i32 } %0, 1
  store i32 %2, ptr %ehselector.slot, align 4
  call void @_ZN4absl12lts_202308024CordD2Ev(ptr noundef nonnull align 8 dereferenceable(16) %agg.result) #3
  br label %eh.resume

if.end:                                           ; preds = %invoke.cont2, %invoke.cont
  store i1 true, ptr %nrvo, align 1
  %nrvo.val = load i1, ptr %nrvo, align 1
  br i1 %nrvo.val, label %nrvo.skipdtor, label %nrvo.unused

nrvo.unused:                                      ; preds = %if.end
  call void @_ZN4absl12lts_202308024CordD2Ev(ptr noundef nonnull align 8 dereferenceable(16) %agg.result) #3
  br label %nrvo.skipdtor

nrvo.skipdtor:                                    ; preds = %nrvo.unused, %if.end
  ret void

eh.resume:                                        ; preds = %lpad
  %exn = load ptr, ptr %exn.slot, align 8
  %sel = load i32, ptr %ehselector.slot, align 4
  %lpad.val = insertvalue { ptr, i32 } poison, ptr %exn, 0
  %lpad.val3 = insertvalue { ptr, i32 } %lpad.val, i32 %sel, 1
  resume { ptr, i32 } %lpad.val3
}